target datalayout = "e-m:e-p270:32:32-p271:32:32-p272:64:64-i64:64-i128:128-f80:128-n8:16:32:64-S128"
target triple = "x86_64-pc-linux-gnu"

%"class.cv::bioinspired::BasicRetinaFilter" = type { %"class.cv::bioinspired::TemplateBuffer", %"class.std::valarray", i32, i32, %"class.std::valarray", %"class.std::valarray", %"class.std::valarray", float, float, float, float, float, float, float, float }
%"class.cv::bioinspired::TemplateBuffer" = type { ptr, %"class.std::valarray", i64, i64, i64, i64, i64 }
%"class.std::valarray" = type { i64, ptr }

; Function Attrs: inlinehint mustprogress nounwind uwtable
define linkonce_odr hidden noundef nonnull align 4 dereferenceable(4) ptr @_ZNSt8valarrayIfEixEm(ptr noundef nonnull align 8 dereferenceable(16) %0, i64 noundef %1) #6 comdat align 2 {
  %3 = alloca ptr, align 8
  %4 = alloca i64, align 8
  store ptr %0, ptr %3, align 8, !tbaa !34
  store i64 %1, ptr %4, align 8, !tbaa !25
  %5 = load ptr, ptr %3, align 8
  %6 = getelementptr inbounds nuw %"class.std::valarray", ptr %5, i32 0, i32 1
  %7 = load ptr, ptr %6, align 8, !tbaa !37
  %8 = load i64, ptr %4, align 8, !tbaa !25
  %9 = getelementptr inbounds nuw float, ptr %7, i64 %8
  ret ptr %9
}

; Function Attrs: inlinehint mustprogress nounwind uwtable
define linkonce_odr hidden noundef ptr @_ZN2cv8get_dataIfEEPKT_RKSt8valarrayIS1_E(ptr noundef nonnull align 8 dereferenceable(16) %0) #6 comdat {
  %2 = alloca ptr, align 8
  store ptr %0, ptr %2, align 8, !tbaa !34
  %3 = load ptr, ptr %2, align 8, !tbaa !34
  %4 = call noundef nonnull align 4 dereferenceable(4) ptr @_ZNSt8valarrayIfEixEm(ptr noundef nonnull align 8 dereferenceable(16) %3, i64 noundef 0) #3
  ret ptr %4
}

; Function Attrs: mustprogress uwtable
define hidden noundef nonnull align 8 dereferenceable(16) ptr @_ZN2cv11bioinspired17BasicRetinaFilter18runFilter_LPfilterERKSt8valarrayIfEj(ptr noundef nonnull align 8 dereferenceable(168) %0, ptr noundef nonnull align 8 dereferenceable(16) %1, i32 noundef %2) #4 align 2 {
  %4 = alloca ptr, align 8
  %5 = alloca ptr, align 8
  %6 = alloca i32, align 4
  store ptr %0, ptr %4, align 8, !tbaa !3
  store ptr %1, ptr %5, align 8, !tbaa !34
  store i32 %2, ptr %6, align 4, !tbaa !8
  %7 = load ptr, ptr %4, align 8
  %8 = load ptr, ptr %5, align 8, !tbaa !34
  %9 = call noundef ptr @_ZN2cv8get_dataIfEEPKT_RKSt8valarrayIS1_E(ptr noundef nonnull align 8 dereferenceable(16) %8)
  %10 = getelementptr inbounds nuw %"class.cv::bioinspired::BasicRetinaFilter", ptr %7, i32 0, i32 0
  %11 = getelementptr inbounds i8, ptr %10, i64 8
  %12 = call noundef nonnull align 4 dereferenceable(4) ptr @_ZNSt8valarrayIfEixEm(ptr noundef nonnull align 8 dereferenceable(16) %11, i64 noundef 0) #3
  %13 = load i32, ptr %6, align 4, !tbaa !8
  call void @_ZN2cv11bioinspired17BasicRetinaFilter23_spatiotemporalLPfilterEPKfPfj(ptr noundef nonnull align 8 dereferenceable(168) %7, ptr noundef %9, ptr noundef %12, i32 noundef %13)
  %14 = getelementptr inbounds nuw %"class.cv::bioinspired::BasicRetinaFilter", ptr %7, i32 0, i32 0
  %15 = getelementptr inbounds i8, ptr %14, i64 8
  ret ptr %15
}